; Function Attrs: nounwind uwtable
define hidden void @uv__process_close(ptr noundef captures(none) %0) local_unnamed_addr #0 {
  %2 = getelementptr inbounds nuw i8, ptr %0, i64 112
  %3 = load ptr, ptr %2, align 8
  %4 = getelementptr inbounds nuw i8, ptr %0, i64 120
  %5 = load ptr, ptr %4, align 8
  store ptr %3, ptr %5, align 8
  %6 = load ptr, ptr %4, align 8
  %7 = getelementptr inbounds nuw i8, ptr %3, i64 8
  store ptr %6, ptr %7, align 8
  %8 = getelementptr inbounds nuw i8, ptr %0, i64 88
  %9 = load i32, ptr %8, align 8
  %10 = and i32 %9, 4
  %11 = icmp eq i32 %10, 0
  br i1 %11, label %21, label %12

12:                                               ; preds = %1
  %13 = and i32 %9, -5
  store i32 %13, ptr %8, align 8
  %14 = and i32 %9, 8
  %.not = icmp eq i32 %14, 0
  br i1 %.not, label %21, label %15

15:                                               ; preds = %12
  %16 = getelementptr inbounds nuw i8, ptr %0, i64 8
  %17 = load ptr, ptr %16, align 8
  %18 = getelementptr inbounds nuw i8, ptr %17, i64 8
  %19 = load i32, ptr %18, align 8
  %20 = add i32 %19, -1
  store i32 %20, ptr %18, align 8
  br label %21

21:                                               ; preds = %12, %15, %1
  %22 = getelementptr inbounds nuw i8, ptr %0, i64 8
  %23 = load ptr, ptr %22, align 8
  %24 = getelementptr inbounds nuw i8, ptr %23, i64 368
  %25 = load ptr, ptr %24, align 8
  %.not8 = icmp eq ptr %24, %25
  br i1 %.not8, label %26, label %29

26:                                               ; preds = %21
  %27 = getelementptr inbounds nuw i8, ptr %23, i64 616
  %28 = tail call i32 @uv_signal_stop(ptr noundef nonnull %27) #12
  br label %29

29:                                               ; preds = %26, %21
  ret void
}